target datalayout = "e-m:e-p270:32:32-p271:32:32-p272:64:64-i64:64-i128:128-f80:128-n8:16:32:64-S128"
target triple = "x86_64-pc-linux-gnu"

; Function Attrs: mustprogress nounwind uwtable
define internal noundef i32 @_ZN2cvL6normL1IaiEET0_PKT_S4_i(ptr noundef %0, ptr noundef %1, i32 noundef %2) #1 {
  %4 = alloca ptr, align 8
  %5 = alloca ptr, align 8
  %6 = alloca i32, align 4
  %7 = alloca i32, align 4
  %8 = alloca i32, align 4
  %9 = alloca i32, align 4
  store ptr %0, ptr %4, align 8
  store ptr %1, ptr %5, align 8
  store i32 %2, ptr %6, align 4
  store i32 0, ptr %7, align 4
  store i32 0, ptr %8, align 4
  br label %10

10:                                               ; preds = %32, %3
  %11 = load i32, ptr %8, align 4
  %12 = load i32, ptr %6, align 4
  %13 = icmp slt i32 %11, %12
  br i1 %13, label %14, label %35

14:                                               ; preds = %10
  %15 = load ptr, ptr %4, align 8
  %16 = load i32, ptr %8, align 4
  %17 = sext i32 %16 to i64
  %18 = getelementptr inbounds i8, ptr %15, i64 %17
  %19 = load i8, ptr %18, align 1
  %20 = sext i8 %19 to i32
  %21 = load ptr, ptr %5, align 8
  %22 = load i32, ptr %8, align 4
  %23 = sext i32 %22 to i64
  %24 = getelementptr inbounds i8, ptr %21, i64 %23
  %25 = load i8, ptr %24, align 1
  %26 = sext i8 %25 to i32
  %27 = sub nsw i32 %20, %26
  store i32 %27, ptr %9, align 4
  %28 = load i32, ptr %9, align 4
  %29 = call i32 @llvm.abs.i32(i32 %28, i1 true)
  %30 = load i32, ptr %7, align 4
  %31 = add nsw i32 %30, %29
  store i32 %31, ptr %7, align 4
  br label %32

32:                                               ; preds = %14
  %33 = load i32, ptr %8, align 4
  %34 = add nsw i32 %33, 1
  store i32 %34, ptr %8, align 4
  br label %10, !llvm.loop !117

35:                                               ; preds = %10
  %36 = load i32, ptr %7, align 4
  ret i32 %36
}

; Function Attrs: mustprogress uwtable
define linkonce_odr hidden noundef i32 @_ZN2cv11normDiffL1_IaiEEiPKT_S3_PKhPT0_ii(ptr noundef %0, ptr noundef %1, ptr noundef %2, ptr noundef %3, i32 noundef %4, i32 noundef %5) #0 comdat {
  %7 = alloca ptr, align 8
  %8 = alloca ptr, align 8
  %9 = alloca ptr, align 8
  %10 = alloca ptr, align 8
  %11 = alloca i32, align 4
  %12 = alloca i32, align 4
  %13 = alloca i32, align 4
  %14 = alloca i32, align 4
  %15 = alloca i32, align 4
  store ptr %0, ptr %7, align 8
  store ptr %1, ptr %8, align 8
  store ptr %2, ptr %9, align 8
  store ptr %3, ptr %10, align 8
  store i32 %4, ptr %11, align 4
  store i32 %5, ptr %12, align 4
  %16 = load ptr, ptr %10, align 8
  %17 = load i32, ptr %16, align 4
  store i32 %17, ptr %13, align 4
  %18 = load ptr, ptr %9, align 8
  %19 = icmp ne ptr %18, null
  br i1 %19, label %29, label %20

20:                                               ; preds = %6
  %21 = load ptr, ptr %7, align 8
  %22 = load ptr, ptr %8, align 8
  %23 = load i32, ptr %11, align 4
  %24 = load i32, ptr %12, align 4
  %25 = mul nsw i32 %23, %24
  %26 = call noundef i32 @_ZN2cvL6normL1IaiEET0_PKT_S4_i(ptr noundef %21, ptr noundef %22, i32 noundef %25)
  %27 = load i32, ptr %13, align 4
  %28 = add nsw i32 %27, %26
  store i32 %28, ptr %13, align 4
  br label %80

29:                                               ; preds = %6
  store i32 0, ptr %14, align 4
  br label %30

30:                                               ; preds = %68, %29
  %31 = load i32, ptr %14, align 4
  %32 = load i32, ptr %11, align 4
  %33 = icmp slt i32 %31, %32
  br i1 %33, label %34, label %79

34:                                               ; preds = %30
  %35 = load ptr, ptr %9, align 8
  %36 = load i32, ptr %14, align 4
  %37 = sext i32 %36 to i64
  %38 = getelementptr inbounds i8, ptr %35, i64 %37
  %39 = load i8, ptr %38, align 1
  %40 = icmp ne i8 %39, 0
  br i1 %40, label %41, label %67

41:                                               ; preds = %34
  store i32 0, ptr %15, align 4
  br label %42

42:                                               ; preds = %63, %41
  %43 = load i32, ptr %15, align 4
  %44 = load i32, ptr %12, align 4
  %45 = icmp slt i32 %43, %44
  br i1 %45, label %46, label %66

46:                                               ; preds = %42
  %47 = load ptr, ptr %7, align 8
  %48 = load i32, ptr %15, align 4
  %49 = sext i32 %48 to i64
  %50 = getelementptr inbounds i8, ptr %47, i64 %49
  %51 = load i8, ptr %50, align 1
  %52 = sext i8 %51 to i32
  %53 = load ptr, ptr %8, align 8
  %54 = load i32, ptr %15, align 4
  %55 = sext i32 %54 to i64
  %56 = getelementptr inbounds i8, ptr %53, i64 %55
  %57 = load i8, ptr %56, align 1
  %58 = sext i8 %57 to i32
  %59 = sub nsw i32 %52, %58
  %60 = call i32 @llvm.abs.i32(i32 %59, i1 true)
  %61 = load i32, ptr %13, align 4
  %62 = add nsw i32 %61, %60
  store i32 %62, ptr %13, align 4
  br label %63

63:                                               ; preds = %46
  %64 = load i32, ptr %15, align 4
  %65 = add nsw i32 %64, 1
  store i32 %65, ptr %15, align 4
  br label %42, !llvm.loop !115

66:                                               ; preds = %42
  br label %67

67:                                               ; preds = %66, %34
  br label %68

68:                                               ; preds = %67
  %69 = load i32, ptr %14, align 4
  %70 = add nsw i32 %69, 1
  store i32 %70, ptr %14, align 4
  %71 = load i32, ptr %12, align 4
  %72 = load ptr, ptr %7, align 8
  %73 = sext i32 %71 to i64
  %74 = getelementptr inbounds i8, ptr %72, i64 %73
  store ptr %74, ptr %7, align 8
  %75 = load i32, ptr %12, align 4
  %76 = load ptr, ptr %8, align 8
  %77 = sext i32 %75 to i64
  %78 = getelementptr inbounds i8, ptr %76, i64 %77
  store ptr %78, ptr %8, align 8
  br label %30, !llvm.loop !116

79:                                               ; preds = %30
  br label %80

80:                                               ; preds = %79, %20
  %81 = load i32, ptr %13, align 4
  %82 = load ptr, ptr %10, align 8
  store i32 %81, ptr %82, align 4
  ret i32 0
}

; Function Attrs: mustprogress uwtable
define internal noundef i32 @_ZN2cvL13normDiffL1_8sEPKaS1_PKhPiii(ptr noundef %0, ptr noundef %1, ptr noundef %2, ptr noundef %3, i32 noundef %4, i32 noundef %5) #0 {
  %7 = alloca ptr, align 8
  %8 = alloca ptr, align 8
  %9 = alloca ptr, align 8
  %10 = alloca ptr, align 8
  %11 = alloca i32, align 4
  %12 = alloca i32, align 4
  store ptr %0, ptr %7, align 8
  store ptr %1, ptr %8, align 8
  store ptr %2, ptr %9, align 8
  store ptr %3, ptr %10, align 8
  store i32 %4, ptr %11, align 4
  store i32 %5, ptr %12, align 4
  %13 = load ptr, ptr %7, align 8
  %14 = load ptr, ptr %8, align 8
  %15 = load ptr, ptr %9, align 8
  %16 = load ptr, ptr %10, align 8
  %17 = load i32, ptr %11, align 4
  %18 = load i32, ptr %12, align 4
  %19 = call noundef i32 @_ZN2cv11normDiffL1_IaiEEiPKT_S3_PKhPT0_ii(ptr noundef %13, ptr noundef %14, ptr noundef %15, ptr noundef %16, i32 noundef %17, i32 noundef %18)
  ret i32 %19
}